target datalayout = "e-m:e-p270:32:32-p271:32:32-p272:64:64-i64:64-i128:128-f80:128-n8:16:32:64-S128"
target triple = "x86_64-pc-linux-gnu"

@hf_netb_xmit_corrl = internal global i32 0, align 4
@hf_netb_status = internal global i32 0, align 4
@hf_netb_name_type = internal global i32 0, align 4
@.str.192 = private unnamed_addr constant [17 x i8] c"Name to be added\00", align 1

; Function Attrs: nounwind uwtable
define internal void @nb_xmit_corrl(ptr noundef %0, i32 noundef %1, ptr noundef %2) #0 {
  %4 = alloca ptr, align 8
  %5 = alloca i32, align 4
  %6 = alloca ptr, align 8
  store ptr %0, ptr %4, align 8
  store i32 %1, ptr %5, align 4
  store ptr %2, ptr %6, align 8
  %7 = load ptr, ptr %6, align 8
  %8 = load i32, ptr @hf_netb_xmit_corrl, align 4
  %9 = load ptr, ptr %4, align 8
  %10 = load i32, ptr %5, align 4
  %11 = add i32 %10, 8
  %12 = call ptr @proto_tree_add_item(ptr noundef %7, i32 noundef %8, ptr noundef %9, i32 noundef %11, i32 noundef 2, i32 noundef -2147483648)
  ret void
}

; Function Attrs: nounwind uwtable
define internal void @nb_data2(i32 noundef %0, ptr noundef %1, i32 noundef %2, ptr noundef %3) #0 {
  %5 = alloca i32, align 4
  %6 = alloca ptr, align 8
  %7 = alloca i32, align 4
  %8 = alloca ptr, align 8
  store i32 %0, ptr %5, align 4
  store ptr %1, ptr %6, align 8
  store i32 %2, ptr %7, align 4
  store ptr %3, ptr %8, align 8
  %9 = load ptr, ptr %8, align 8
  %10 = load i32, ptr %5, align 4
  %11 = load ptr, ptr %6, align 8
  %12 = load i32, ptr %7, align 4
  %13 = add i32 %12, 6
  %14 = call ptr @proto_tree_add_item(ptr noundef %9, i32 noundef %10, ptr noundef %11, i32 noundef %13, i32 noundef 2, i32 noundef -2147483648)
  ret void
}

; Function Attrs: nounwind uwtable
define internal void @nb_data1(i32 noundef %0, ptr noundef %1, i32 noundef %2, ptr noundef %3) #0 {
  %5 = alloca i32, align 4
  %6 = alloca ptr, align 8
  %7 = alloca i32, align 4
  %8 = alloca ptr, align 8
  store i32 %0, ptr %5, align 4
  store ptr %1, ptr %6, align 8
  store i32 %2, ptr %7, align 4
  store ptr %3, ptr %8, align 8
  %9 = load ptr, ptr %8, align 8
  %10 = load i32, ptr %5, align 4
  %11 = load ptr, ptr %6, align 8
  %12 = load i32, ptr %7, align 4
  %13 = add i32 %12, 5
  %14 = call ptr @proto_tree_add_item(ptr noundef %9, i32 noundef %10, ptr noundef %11, i32 noundef %13, i32 noundef 1, i32 noundef -2147483648)
  ret void
}

; Function Attrs: nounwind uwtable
define internal i32 @dissect_netb_add_name_resp(ptr noundef %0, ptr noundef %1, i32 noundef %2, ptr noundef %3) #0 {
  %5 = alloca ptr, align 8
  %6 = alloca ptr, align 8
  %7 = alloca i32, align 4
  %8 = alloca ptr, align 8
  store ptr %0, ptr %5, align 8
  store ptr %1, ptr %6, align 8
  store i32 %2, ptr %7, align 4
  store ptr %3, ptr %8, align 8
  %9 = load i32, ptr @hf_netb_status, align 4
  %10 = load ptr, ptr %5, align 8
  %11 = load i32, ptr %7, align 4
  %12 = load ptr, ptr %8, align 8
  call void @nb_data1(i32 noundef %9, ptr noundef %10, i32 noundef %11, ptr noundef %12)
  %13 = load i32, ptr @hf_netb_name_type, align 4
  %14 = load ptr, ptr %5, align 8
  %15 = load i32, ptr %7, align 4
  %16 = load ptr, ptr %8, align 8
  call void @nb_data2(i32 noundef %13, ptr noundef %14, i32 noundef %15, ptr noundef %16)
  %17 = load ptr, ptr %5, align 8
  %18 = load i32, ptr %7, align 4
  %19 = load ptr, ptr %8, align 8
  call void @nb_xmit_corrl(ptr noundef %17, i32 noundef %18, ptr noundef %19)
  %20 = load ptr, ptr %5, align 8
  %21 = load i32, ptr %7, align 4
  %22 = add i32 %21, 12
  %23 = load ptr, ptr %8, align 8
  call void @netbios_add_name(ptr noundef @.str.192, ptr noundef %20, i32 noundef %22, ptr noundef %23)
  %24 = load ptr, ptr %5, align 8
  %25 = load i32, ptr %7, align 4
  %26 = add i32 %25, 28
  %27 = load ptr, ptr %8, align 8
  call void @netbios_add_name(ptr noundef @.str.192, ptr noundef %24, i32 noundef %26, ptr noundef %27)
  ret i32 0
}