; Function Attrs: nounwind uwtable
define internal noundef i32 @dissect_netb_add_name_resp(ptr noundef %0, ptr readnone captures(none) %1, i32 noundef %2, ptr noundef %3) #1 {
  %5 = load i32, ptr @hf_netb_status, align 4
  %6 = add i32 %2, 5
  %7 = tail call ptr @proto_tree_add_item(ptr noundef %3, i32 noundef %5, ptr noundef %0, i32 noundef %6, i32 noundef 1, i32 noundef -2147483648) #6
  %8 = load i32, ptr @hf_netb_name_type, align 4
  %9 = add i32 %2, 6
  %10 = tail call ptr @proto_tree_add_item(ptr noundef %3, i32 noundef %8, ptr noundef %0, i32 noundef %9, i32 noundef 2, i32 noundef -2147483648) #6
  %11 = load i32, ptr @hf_netb_xmit_corrl, align 4
  %12 = add i32 %2, 8
  %13 = tail call ptr @proto_tree_add_item(ptr noundef %3, i32 noundef %11, ptr noundef %0, i32 noundef %12, i32 noundef 2, i32 noundef -2147483648) #6
  %14 = add i32 %2, 12
  tail call void @netbios_add_name(ptr noundef nonnull @.str.192, ptr noundef %0, i32 noundef %14, ptr noundef %3)
  %15 = add i32 %2, 28
  tail call void @netbios_add_name(ptr noundef nonnull @.str.192, ptr noundef %0, i32 noundef %15, ptr noundef %3)
  ret i32 0
}